target datalayout = "e-m:e-p270:32:32-p271:32:32-p272:64:64-i64:64-i128:128-f80:128-n8:16:32:64-S128"
target triple = "x86_64-pc-linux-gnu"

; Function Attrs: nounwind uwtable
define internal void @convsamp_float(ptr noundef %0, i32 noundef %1, ptr noundef %2) #0 {
  %4 = alloca ptr, align 8
  %5 = alloca i32, align 4
  %6 = alloca ptr, align 8
  %7 = alloca ptr, align 8
  %8 = alloca ptr, align 8
  %9 = alloca i32, align 4
  store ptr %0, ptr %4, align 8, !tbaa !71
  store i32 %1, ptr %5, align 4, !tbaa !53
  store ptr %2, ptr %6, align 8, !tbaa !55
  call void @llvm.lifetime.start.p0(i64 8, ptr %7) #3
  call void @llvm.lifetime.start.p0(i64 8, ptr %8) #3
  call void @llvm.lifetime.start.p0(i64 4, ptr %9) #3
  %10 = load ptr, ptr %6, align 8, !tbaa !55
  store ptr %10, ptr %7, align 8, !tbaa !55
  store i32 0, ptr %9, align 4, !tbaa !53
  br label %11

11:                                               ; preds = %87, %3
  %12 = load i32, ptr %9, align 4, !tbaa !53
  %13 = icmp slt i32 %12, 8
  br i1 %13, label %14, label %90

14:                                               ; preds = %11
  %15 = load ptr, ptr %4, align 8, !tbaa !71
  %16 = load i32, ptr %9, align 4, !tbaa !53
  %17 = sext i32 %16 to i64
  %18 = getelementptr inbounds ptr, ptr %15, i64 %17
  %19 = load ptr, ptr %18, align 8, !tbaa !74
  %20 = load i32, ptr %5, align 4, !tbaa !53
  %21 = zext i32 %20 to i64
  %22 = getelementptr inbounds nuw i8, ptr %19, i64 %21
  store ptr %22, ptr %8, align 8, !tbaa !74
  %23 = load ptr, ptr %8, align 8, !tbaa !74
  %24 = getelementptr inbounds nuw i8, ptr %23, i32 1
  store ptr %24, ptr %8, align 8, !tbaa !74
  %25 = load i8, ptr %23, align 1, !tbaa !31
  %26 = zext i8 %25 to i32
  %27 = sub nsw i32 %26, 128
  %28 = sitofp i32 %27 to float
  %29 = load ptr, ptr %7, align 8, !tbaa !55
  %30 = getelementptr inbounds nuw float, ptr %29, i32 1
  store ptr %30, ptr %7, align 8, !tbaa !55
  store float %28, ptr %29, align 4, !tbaa !66
  %31 = load ptr, ptr %8, align 8, !tbaa !74
  %32 = getelementptr inbounds nuw i8, ptr %31, i32 1
  store ptr %32, ptr %8, align 8, !tbaa !74
  %33 = load i8, ptr %31, align 1, !tbaa !31
  %34 = zext i8 %33 to i32
  %35 = sub nsw i32 %34, 128
  %36 = sitofp i32 %35 to float
  %37 = load ptr, ptr %7, align 8, !tbaa !55
  %38 = getelementptr inbounds nuw float, ptr %37, i32 1
  store ptr %38, ptr %7, align 8, !tbaa !55
  store float %36, ptr %37, align 4, !tbaa !66
  %39 = load ptr, ptr %8, align 8, !tbaa !74
  %40 = getelementptr inbounds nuw i8, ptr %39, i32 1
  store ptr %40, ptr %8, align 8, !tbaa !74
  %41 = load i8, ptr %39, align 1, !tbaa !31
  %42 = zext i8 %41 to i32
  %43 = sub nsw i32 %42, 128
  %44 = sitofp i32 %43 to float
  %45 = load ptr, ptr %7, align 8, !tbaa !55
  %46 = getelementptr inbounds nuw float, ptr %45, i32 1
  store ptr %46, ptr %7, align 8, !tbaa !55
  store float %44, ptr %45, align 4, !tbaa !66
  %47 = load ptr, ptr %8, align 8, !tbaa !74
  %48 = getelementptr inbounds nuw i8, ptr %47, i32 1
  store ptr %48, ptr %8, align 8, !tbaa !74
  %49 = load i8, ptr %47, align 1, !tbaa !31
  %50 = zext i8 %49 to i32
  %51 = sub nsw i32 %50, 128
  %52 = sitofp i32 %51 to float
  %53 = load ptr, ptr %7, align 8, !tbaa !55
  %54 = getelementptr inbounds nuw float, ptr %53, i32 1
  store ptr %54, ptr %7, align 8, !tbaa !55
  store float %52, ptr %53, align 4, !tbaa !66
  %55 = load ptr, ptr %8, align 8, !tbaa !74
  %56 = getelementptr inbounds nuw i8, ptr %55, i32 1
  store ptr %56, ptr %8, align 8, !tbaa !74
  %57 = load i8, ptr %55, align 1, !tbaa !31
  %58 = zext i8 %57 to i32
  %59 = sub nsw i32 %58, 128
  %60 = sitofp i32 %59 to float
  %61 = load ptr, ptr %7, align 8, !tbaa !55
  %62 = getelementptr inbounds nuw float, ptr %61, i32 1
  store ptr %62, ptr %7, align 8, !tbaa !55
  store float %60, ptr %61, align 4, !tbaa !66
  %63 = load ptr, ptr %8, align 8, !tbaa !74
  %64 = getelementptr inbounds nuw i8, ptr %63, i32 1
  store ptr %64, ptr %8, align 8, !tbaa !74
  %65 = load i8, ptr %63, align 1, !tbaa !31
  %66 = zext i8 %65 to i32
  %67 = sub nsw i32 %66, 128
  %68 = sitofp i32 %67 to float
  %69 = load ptr, ptr %7, align 8, !tbaa !55
  %70 = getelementptr inbounds nuw float, ptr %69, i32 1
  store ptr %70, ptr %7, align 8, !tbaa !55
  store float %68, ptr %69, align 4, !tbaa !66
  %71 = load ptr, ptr %8, align 8, !tbaa !74
  %72 = getelementptr inbounds nuw i8, ptr %71, i32 1
  store ptr %72, ptr %8, align 8, !tbaa !74
  %73 = load i8, ptr %71, align 1, !tbaa !31
  %74 = zext i8 %73 to i32
  %75 = sub nsw i32 %74, 128
  %76 = sitofp i32 %75 to float
  %77 = load ptr, ptr %7, align 8, !tbaa !55
  %78 = getelementptr inbounds nuw float, ptr %77, i32 1
  store ptr %78, ptr %7, align 8, !tbaa !55
  store float %76, ptr %77, align 4, !tbaa !66
  %79 = load ptr, ptr %8, align 8, !tbaa !74
  %80 = getelementptr inbounds nuw i8, ptr %79, i32 1
  store ptr %80, ptr %8, align 8, !tbaa !74
  %81 = load i8, ptr %79, align 1, !tbaa !31
  %82 = zext i8 %81 to i32
  %83 = sub nsw i32 %82, 128
  %84 = sitofp i32 %83 to float
  %85 = load ptr, ptr %7, align 8, !tbaa !55
  %86 = getelementptr inbounds nuw float, ptr %85, i32 1
  store ptr %86, ptr %7, align 8, !tbaa !55
  store float %84, ptr %85, align 4, !tbaa !66
  br label %87

87:                                               ; preds = %14
  %88 = load i32, ptr %9, align 4, !tbaa !53
  %89 = add nsw i32 %88, 1
  store i32 %89, ptr %9, align 4, !tbaa !53
  br label %11, !llvm.loop !78

90:                                               ; preds = %11
  call void @llvm.lifetime.end.p0(i64 4, ptr %9) #3
  call void @llvm.lifetime.end.p0(i64 8, ptr %8) #3
  call void @llvm.lifetime.end.p0(i64 8, ptr %7) #3
  ret void
}