; Function Attrs: nofree norecurse nosync nounwind memory(read, argmem: readwrite, inaccessiblemem: none) uwtable
define internal void @convsamp_float(ptr noundef readonly captures(none) %0, i32 noundef %1, ptr noundef writeonly captures(none) %2) #2 {
  %4 = zext i32 %1 to i64
  br label %5

5:                                                ; preds = %3, %5
  %indvars.iv = phi i64 [ 0, %3 ], [ %indvars.iv.next, %5 ]
  %.02122 = phi ptr [ %2, %3 ], [ %55, %5 ]
  %6 = getelementptr inbounds nuw ptr, ptr %0, i64 %indvars.iv
  %7 = load ptr, ptr %6, align 8, !tbaa !69
  %8 = getelementptr inbounds nuw i8, ptr %7, i64 %4
  %9 = getelementptr inbounds nuw i8, ptr %8, i64 1
  %10 = load i8, ptr %8, align 1, !tbaa !29
  %11 = zext i8 %10 to i32
  %12 = add nsw i32 %11, -128
  %13 = sitofp i32 %12 to float
  %14 = getelementptr inbounds nuw i8, ptr %.02122, i64 4
  store float %13, ptr %.02122, align 4, !tbaa !60
  %15 = getelementptr inbounds nuw i8, ptr %8, i64 2
  %16 = load i8, ptr %9, align 1, !tbaa !29
  %17 = zext i8 %16 to i32
  %18 = add nsw i32 %17, -128
  %19 = sitofp i32 %18 to float
  %20 = getelementptr inbounds nuw i8, ptr %.02122, i64 8
  store float %19, ptr %14, align 4, !tbaa !60
  %21 = getelementptr inbounds nuw i8, ptr %8, i64 3
  %22 = load i8, ptr %15, align 1, !tbaa !29
  %23 = zext i8 %22 to i32
  %24 = add nsw i32 %23, -128
  %25 = sitofp i32 %24 to float
  %26 = getelementptr inbounds nuw i8, ptr %.02122, i64 12
  store float %25, ptr %20, align 4, !tbaa !60
  %27 = getelementptr inbounds nuw i8, ptr %8, i64 4
  %28 = load i8, ptr %21, align 1, !tbaa !29
  %29 = zext i8 %28 to i32
  %30 = add nsw i32 %29, -128
  %31 = sitofp i32 %30 to float
  %32 = getelementptr inbounds nuw i8, ptr %.02122, i64 16
  store float %31, ptr %26, align 4, !tbaa !60
  %33 = getelementptr inbounds nuw i8, ptr %8, i64 5
  %34 = load i8, ptr %27, align 1, !tbaa !29
  %35 = zext i8 %34 to i32
  %36 = add nsw i32 %35, -128
  %37 = sitofp i32 %36 to float
  %38 = getelementptr inbounds nuw i8, ptr %.02122, i64 20
  store float %37, ptr %32, align 4, !tbaa !60
  %39 = getelementptr inbounds nuw i8, ptr %8, i64 6
  %40 = load i8, ptr %33, align 1, !tbaa !29
  %41 = zext i8 %40 to i32
  %42 = add nsw i32 %41, -128
  %43 = sitofp i32 %42 to float
  %44 = getelementptr inbounds nuw i8, ptr %.02122, i64 24
  store float %43, ptr %38, align 4, !tbaa !60
  %45 = getelementptr inbounds nuw i8, ptr %8, i64 7
  %46 = load i8, ptr %39, align 1, !tbaa !29
  %47 = zext i8 %46 to i32
  %48 = add nsw i32 %47, -128
  %49 = sitofp i32 %48 to float
  %50 = getelementptr inbounds nuw i8, ptr %.02122, i64 28
  store float %49, ptr %44, align 4, !tbaa !60
  %51 = load i8, ptr %45, align 1, !tbaa !29
  %52 = zext i8 %51 to i32
  %53 = add nsw i32 %52, -128
  %54 = sitofp i32 %53 to float
  %55 = getelementptr inbounds nuw i8, ptr %.02122, i64 32
  store float %54, ptr %50, align 4, !tbaa !60
  %indvars.iv.next = add nuw nsw i64 %indvars.iv, 1
  %exitcond.not = icmp eq i64 %indvars.iv.next, 8
  br i1 %exitcond.not, label %56, label %5, !llvm.loop !73

56:                                               ; preds = %5
  ret void
}